target datalayout = "e-m:e-p270:32:32-p271:32:32-p272:64:64-i64:64-i128:128-f80:128-n8:16:32:64-S128"
target triple = "x86_64-pc-linux-gnu"

%struct.jv = type { i8, i8, i16, i32, %union.anon }
%union.anon = type { ptr }
%struct.jv_refcnt = type { i32 }
%struct.jvp_object = type { %struct.jv_refcnt, i32, [0 x %struct.object_slot] }
%struct.object_slot = type { i32, i32, %struct.jv, %struct.jv }

@JV_NULL = dso_local constant %struct.jv { i8 1, i8 0, i16 0, i32 0, %union.anon zeroinitializer }, align 8

; Function Attrs: nounwind uwtable
define internal { i64, ptr } @jvp_object_new(i32 noundef %0) #0 {
  %2 = alloca %struct.jv, align 8
  %3 = alloca i32, align 4
  %4 = alloca ptr, align 8
  %5 = alloca i32, align 4
  %6 = alloca ptr, align 8
  %7 = alloca i32, align 4
  store i32 %0, ptr %3, align 4, !tbaa !10
  call void @llvm.lifetime.start.p0(i64 8, ptr %4) #11
  %8 = load i32, ptr %3, align 4, !tbaa !10
  %9 = sext i32 %8 to i64
  %10 = mul i64 40, %9
  %11 = add i64 8, %10
  %12 = load i32, ptr %3, align 4, !tbaa !10
  %13 = mul nsw i32 %12, 2
  %14 = sext i32 %13 to i64
  %15 = mul i64 4, %14
  %16 = add i64 %11, %15
  %17 = call ptr @jv_mem_alloc(i64 noundef %16)
  store ptr %17, ptr %4, align 8, !tbaa !14
  %18 = load ptr, ptr %4, align 8, !tbaa !14
  %19 = getelementptr inbounds nuw %struct.jvp_object, ptr %18, i32 0, i32 0
  %20 = getelementptr inbounds nuw %struct.jv_refcnt, ptr %19, i32 0, i32 0
  store i32 1, ptr %20, align 8, !tbaa !68
  call void @llvm.lifetime.start.p0(i64 4, ptr %5) #11
  store i32 0, ptr %5, align 4, !tbaa !10
  br label %21

21:                                               ; preds = %53, %1
  %22 = load i32, ptr %5, align 4, !tbaa !10
  %23 = load i32, ptr %3, align 4, !tbaa !10
  %24 = icmp slt i32 %22, %23
  br i1 %24, label %26, label %25

25:                                               ; preds = %21
  call void @llvm.lifetime.end.p0(i64 4, ptr %5) #11
  br label %56

26:                                               ; preds = %21
  %27 = load i32, ptr %5, align 4, !tbaa !10
  %28 = sub nsw i32 %27, 1
  %29 = load ptr, ptr %4, align 8, !tbaa !14
  %30 = getelementptr inbounds nuw %struct.jvp_object, ptr %29, i32 0, i32 2
  %31 = load i32, ptr %5, align 4, !tbaa !10
  %32 = sext i32 %31 to i64
  %33 = getelementptr inbounds [0 x %struct.object_slot], ptr %30, i64 0, i64 %32
  %34 = getelementptr inbounds nuw %struct.object_slot, ptr %33, i32 0, i32 0
  store i32 %28, ptr %34, align 8, !tbaa !69
  %35 = load ptr, ptr %4, align 8, !tbaa !14
  %36 = getelementptr inbounds nuw %struct.jvp_object, ptr %35, i32 0, i32 2
  %37 = load i32, ptr %5, align 4, !tbaa !10
  %38 = sext i32 %37 to i64
  %39 = getelementptr inbounds [0 x %struct.object_slot], ptr %36, i64 0, i64 %38
  %40 = getelementptr inbounds nuw %struct.object_slot, ptr %39, i32 0, i32 2
  call void @llvm.memcpy.p0.p0.i64(ptr align 8 %40, ptr align 8 @JV_NULL, i64 16, i1 false), !tbaa.struct !11
  %41 = load ptr, ptr %4, align 8, !tbaa !14
  %42 = getelementptr inbounds nuw %struct.jvp_object, ptr %41, i32 0, i32 2
  %43 = load i32, ptr %5, align 4, !tbaa !10
  %44 = sext i32 %43 to i64
  %45 = getelementptr inbounds [0 x %struct.object_slot], ptr %42, i64 0, i64 %44
  %46 = getelementptr inbounds nuw %struct.object_slot, ptr %45, i32 0, i32 1
  store i32 0, ptr %46, align 4, !tbaa !71
  %47 = load ptr, ptr %4, align 8, !tbaa !14
  %48 = getelementptr inbounds nuw %struct.jvp_object, ptr %47, i32 0, i32 2
  %49 = load i32, ptr %5, align 4, !tbaa !10
  %50 = sext i32 %49 to i64
  %51 = getelementptr inbounds [0 x %struct.object_slot], ptr %48, i64 0, i64 %50
  %52 = getelementptr inbounds nuw %struct.object_slot, ptr %51, i32 0, i32 3
  call void @llvm.memcpy.p0.p0.i64(ptr align 8 %52, ptr align 8 @JV_NULL, i64 16, i1 false), !tbaa.struct !11
  br label %53

53:                                               ; preds = %26
  %54 = load i32, ptr %5, align 4, !tbaa !10
  %55 = add nsw i32 %54, 1
  store i32 %55, ptr %5, align 4, !tbaa !10
  br label %21, !llvm.loop !72

56:                                               ; preds = %25
  %57 = load ptr, ptr %4, align 8, !tbaa !14
  %58 = getelementptr inbounds nuw %struct.jvp_object, ptr %57, i32 0, i32 1
  store i32 0, ptr %58, align 4, !tbaa !10
  call void @llvm.lifetime.start.p0(i64 8, ptr %6) #11
  %59 = load ptr, ptr %4, align 8, !tbaa !14
  %60 = getelementptr inbounds nuw %struct.jvp_object, ptr %59, i32 0, i32 2
  %61 = load i32, ptr %3, align 4, !tbaa !10
  %62 = sext i32 %61 to i64
  %63 = getelementptr inbounds [0 x %struct.object_slot], ptr %60, i64 0, i64 %62
  store ptr %63, ptr %6, align 8, !tbaa !37
  call void @llvm.lifetime.start.p0(i64 4, ptr %7) #11
  store i32 0, ptr %7, align 4, !tbaa !10
  br label %64

64:                                               ; preds = %75, %56
  %65 = load i32, ptr %7, align 4, !tbaa !10
  %66 = load i32, ptr %3, align 4, !tbaa !10
  %67 = mul nsw i32 %66, 2
  %68 = icmp slt i32 %65, %67
  br i1 %68, label %70, label %69

69:                                               ; preds = %64
  call void @llvm.lifetime.end.p0(i64 4, ptr %7) #11
  br label %78

70:                                               ; preds = %64
  %71 = load ptr, ptr %6, align 8, !tbaa !37
  %72 = load i32, ptr %7, align 4, !tbaa !10
  %73 = sext i32 %72 to i64
  %74 = getelementptr inbounds i32, ptr %71, i64 %73
  store i32 -1, ptr %74, align 4, !tbaa !10
  br label %75

75:                                               ; preds = %70
  %76 = load i32, ptr %7, align 4, !tbaa !10
  %77 = add nsw i32 %76, 1
  store i32 %77, ptr %7, align 4, !tbaa !10
  br label %64, !llvm.loop !73

78:                                               ; preds = %69
  %79 = getelementptr inbounds nuw %struct.jv, ptr %2, i32 0, i32 0
  store i8 -121, ptr %79, align 8, !tbaa !4
  %80 = getelementptr inbounds nuw %struct.jv, ptr %2, i32 0, i32 1
  store i8 0, ptr %80, align 1, !tbaa !17
  %81 = getelementptr inbounds nuw %struct.jv, ptr %2, i32 0, i32 2
  store i16 0, ptr %81, align 2, !tbaa !18
  %82 = getelementptr inbounds nuw %struct.jv, ptr %2, i32 0, i32 3
  %83 = load i32, ptr %3, align 4, !tbaa !10
  store i32 %83, ptr %82, align 4, !tbaa !19
  %84 = getelementptr inbounds nuw %struct.jv, ptr %2, i32 0, i32 4
  %85 = load ptr, ptr %4, align 8, !tbaa !14
  %86 = getelementptr inbounds nuw %struct.jvp_object, ptr %85, i32 0, i32 0
  store ptr %86, ptr %84, align 8, !tbaa !12
  call void @llvm.lifetime.end.p0(i64 8, ptr %6) #11
  call void @llvm.lifetime.end.p0(i64 8, ptr %4) #11
  %87 = load { i64, ptr }, ptr %2, align 8
  ret { i64, ptr } %87
}

; Function Attrs: nounwind uwtable
define dso_local { i64, ptr } @jv_object() #0 {
  %1 = alloca %struct.jv, align 8
  %2 = call { i64, ptr } @jvp_object_new(i32 noundef 8)
  %3 = getelementptr inbounds nuw { i64, ptr }, ptr %1, i32 0, i32 0
  %4 = extractvalue { i64, ptr } %2, 0
  store i64 %4, ptr %3, align 8
  %5 = getelementptr inbounds nuw { i64, ptr }, ptr %1, i32 0, i32 1
  %6 = extractvalue { i64, ptr } %2, 1
  store ptr %6, ptr %5, align 8
  %7 = load { i64, ptr }, ptr %1, align 8
  ret { i64, ptr } %7
}