; Function Attrs: nounwind uwtable
define dso_local { i64, ptr } @jv_object() local_unnamed_addr #2 {
  %1 = tail call ptr @jv_mem_alloc(i64 noundef 392) #25
  store i32 1, ptr %1, align 8, !tbaa !9
  %2 = getelementptr inbounds nuw i8, ptr %1, i64 8
  br label %3

3:                                                ; preds = %3, %0
  %indvars.iv.i = phi i64 [ 0, %0 ], [ %indvars.iv.next.i, %3 ]
  %4 = getelementptr inbounds nuw [0 x %struct.object_slot], ptr %2, i64 0, i64 %indvars.iv.i
  %5 = trunc i64 %indvars.iv.i to i32
  %6 = add i32 %5, -1
  store i32 %6, ptr %4, align 8, !tbaa !58
  %7 = getelementptr inbounds nuw i8, ptr %4, i64 8
  tail call void @llvm.memcpy.p0.p0.i64(ptr noundef nonnull align 8 dereferenceable(16) %7, ptr noundef nonnull align 8 dereferenceable(16) @JV_NULL, i64 16, i1 false), !tbaa.struct !36
  %8 = getelementptr inbounds nuw i8, ptr %4, i64 4
  store i32 0, ptr %8, align 4, !tbaa !61
  %9 = getelementptr inbounds nuw i8, ptr %4, i64 24
  tail call void @llvm.memcpy.p0.p0.i64(ptr noundef nonnull align 8 dereferenceable(16) %9, ptr noundef nonnull align 8 dereferenceable(16) @JV_NULL, i64 16, i1 false), !tbaa.struct !36
  %indvars.iv.next.i = add nuw nsw i64 %indvars.iv.i, 1
  %exitcond.not.i = icmp eq i64 %indvars.iv.next.i, 8
  br i1 %exitcond.not.i, label %jvp_object_new.exit, label %3, !llvm.loop !62

jvp_object_new.exit:                              ; preds = %3
  %10 = getelementptr inbounds nuw i8, ptr %1, i64 4
  store i32 0, ptr %10, align 4, !tbaa !4
  %11 = getelementptr i8, ptr %1, i64 328
  tail call void @llvm.memset.p0.i64(ptr noundef nonnull align 4 dereferenceable(64) %11, i8 -1, i64 64, i1 false), !tbaa !4
  %.fca.1.insert.i = insertvalue { i64, ptr } { i64 34359738503, ptr poison }, ptr %1, 1
  ret { i64, ptr } %.fca.1.insert.i
}